target datalayout = "e-m:e-p270:32:32-p271:32:32-p272:64:64-i64:64-i128:128-f80:128-n8:16:32:64-S128"
target triple = "x86_64-pc-linux-gnu"

%struct.qdldl = type { i32, ptr, ptr, ptr, ptr, ptr, ptr, ptr, ptr, i64, ptr, ptr, ptr, ptr, ptr, ptr, double, double, i64, i64, i64, ptr, ptr, ptr, ptr, ptr, ptr, ptr, ptr, ptr, ptr, ptr }
%struct.OSQPCscMatrix = type { i64, i64, ptr, ptr, ptr, i64, i64 }

; Function Attrs: nounwind uwtable
define internal i64 @permute_KKT(ptr noundef %0, ptr noundef %1, i64 noundef %2, i64 noundef %3, i64 noundef %4, ptr noundef %5, ptr noundef %6, ptr noundef %7) #0 {
  %9 = alloca i64, align 8
  %10 = alloca ptr, align 8
  %11 = alloca ptr, align 8
  %12 = alloca i64, align 8
  %13 = alloca i64, align 8
  %14 = alloca i64, align 8
  %15 = alloca ptr, align 8
  %16 = alloca ptr, align 8
  %17 = alloca ptr, align 8
  %18 = alloca ptr, align 8
  %19 = alloca i64, align 8
  %20 = alloca ptr, align 8
  %21 = alloca ptr, align 8
  %22 = alloca i64, align 8
  %23 = alloca ptr, align 8
  %24 = alloca i32, align 4
  store ptr %0, ptr %10, align 8, !tbaa !8
  store ptr %1, ptr %11, align 8, !tbaa !3
  store i64 %2, ptr %12, align 8, !tbaa !43
  store i64 %3, ptr %13, align 8, !tbaa !43
  store i64 %4, ptr %14, align 8, !tbaa !43
  store ptr %5, ptr %15, align 8, !tbaa !76
  store ptr %6, ptr %16, align 8, !tbaa !76
  store ptr %7, ptr %17, align 8, !tbaa !76
  call void @llvm.lifetime.start.p0(i64 8, ptr %18) #7
  call void @llvm.lifetime.start.p0(i64 8, ptr %19) #7
  call void @llvm.lifetime.start.p0(i64 8, ptr %20) #7
  call void @llvm.lifetime.start.p0(i64 8, ptr %21) #7
  call void @llvm.lifetime.start.p0(i64 8, ptr %22) #7
  call void @llvm.lifetime.start.p0(i64 8, ptr %23) #7
  %25 = call noalias ptr @malloc(i64 noundef 160) #9
  store ptr %25, ptr %18, align 8, !tbaa !70
  %26 = load ptr, ptr %10, align 8, !tbaa !8
  %27 = load ptr, ptr %26, align 8, !tbaa !8
  %28 = getelementptr inbounds nuw %struct.OSQPCscMatrix, ptr %27, i32 0, i32 1
  %29 = load i64, ptr %28, align 8, !tbaa !49
  %30 = load ptr, ptr %10, align 8, !tbaa !8
  %31 = load ptr, ptr %30, align 8, !tbaa !8
  %32 = getelementptr inbounds nuw %struct.OSQPCscMatrix, ptr %31, i32 0, i32 2
  %33 = load ptr, ptr %32, align 8, !tbaa !19
  %34 = load ptr, ptr %10, align 8, !tbaa !8
  %35 = load ptr, ptr %34, align 8, !tbaa !8
  %36 = getelementptr inbounds nuw %struct.OSQPCscMatrix, ptr %35, i32 0, i32 3
  %37 = load ptr, ptr %36, align 8, !tbaa !21
  %38 = load ptr, ptr %11, align 8, !tbaa !3
  %39 = getelementptr inbounds nuw %struct.qdldl, ptr %38, i32 0, i32 12
  %40 = load ptr, ptr %39, align 8, !tbaa !23
  %41 = load ptr, ptr %18, align 8, !tbaa !70
  %42 = call i64 @amd_l_order(i64 noundef %29, ptr noundef %33, ptr noundef %37, ptr noundef %40, ptr noundef null, ptr noundef %41)
  store i64 %42, ptr %19, align 8, !tbaa !43
  %43 = load i64, ptr %19, align 8, !tbaa !43
  %44 = icmp slt i64 %43, 0
  br i1 %44, label %45, label %48

45:                                               ; preds = %8
  %46 = load ptr, ptr %18, align 8, !tbaa !70
  call void @free(ptr noundef %46) #7
  %47 = load i64, ptr %19, align 8, !tbaa !43
  store i64 %47, ptr %9, align 8
  store i32 1, ptr %24, align 4
  br label %165

48:                                               ; preds = %8
  %49 = load ptr, ptr %11, align 8, !tbaa !3
  %50 = getelementptr inbounds nuw %struct.qdldl, ptr %49, i32 0, i32 12
  %51 = load ptr, ptr %50, align 8, !tbaa !23
  %52 = load ptr, ptr %10, align 8, !tbaa !8
  %53 = load ptr, ptr %52, align 8, !tbaa !8
  %54 = getelementptr inbounds nuw %struct.OSQPCscMatrix, ptr %53, i32 0, i32 1
  %55 = load i64, ptr %54, align 8, !tbaa !49
  %56 = call ptr @csc_pinv(ptr noundef %51, i64 noundef %55)
  store ptr %56, ptr %20, align 8, !tbaa !76
  %57 = load ptr, ptr %15, align 8, !tbaa !76
  %58 = icmp ne ptr %57, null
  br i1 %58, label %70, label %59

59:                                               ; preds = %48
  %60 = load ptr, ptr %16, align 8, !tbaa !76
  %61 = icmp ne ptr %60, null
  br i1 %61, label %70, label %62

62:                                               ; preds = %59
  %63 = load ptr, ptr %17, align 8, !tbaa !76
  %64 = icmp ne ptr %63, null
  br i1 %64, label %70, label %65

65:                                               ; preds = %62
  %66 = load ptr, ptr %10, align 8, !tbaa !8
  %67 = load ptr, ptr %66, align 8, !tbaa !8
  %68 = load ptr, ptr %20, align 8, !tbaa !76
  %69 = call ptr @csc_symperm(ptr noundef %67, ptr noundef %68, ptr noundef null, i64 noundef 1)
  store ptr %69, ptr %23, align 8, !tbaa !8
  br label %158

70:                                               ; preds = %62, %59, %48
  %71 = load ptr, ptr %10, align 8, !tbaa !8
  %72 = load ptr, ptr %71, align 8, !tbaa !8
  %73 = getelementptr inbounds nuw %struct.OSQPCscMatrix, ptr %72, i32 0, i32 2
  %74 = load ptr, ptr %73, align 8, !tbaa !19
  %75 = load ptr, ptr %10, align 8, !tbaa !8
  %76 = load ptr, ptr %75, align 8, !tbaa !8
  %77 = getelementptr inbounds nuw %struct.OSQPCscMatrix, ptr %76, i32 0, i32 1
  %78 = load i64, ptr %77, align 8, !tbaa !49
  %79 = getelementptr inbounds i64, ptr %74, i64 %78
  %80 = load i64, ptr %79, align 8, !tbaa !43
  %81 = mul i64 %80, 8
  %82 = call noalias ptr @malloc(i64 noundef %81) #9
  store ptr %82, ptr %21, align 8, !tbaa !76
  %83 = load ptr, ptr %10, align 8, !tbaa !8
  %84 = load ptr, ptr %83, align 8, !tbaa !8
  %85 = load ptr, ptr %20, align 8, !tbaa !76
  %86 = load ptr, ptr %21, align 8, !tbaa !76
  %87 = call ptr @csc_symperm(ptr noundef %84, ptr noundef %85, ptr noundef %86, i64 noundef 1)
  store ptr %87, ptr %23, align 8, !tbaa !8
  %88 = load ptr, ptr %15, align 8, !tbaa !76
  %89 = icmp ne ptr %88, null
  br i1 %89, label %90, label %110

90:                                               ; preds = %70
  store i64 0, ptr %22, align 8, !tbaa !43
  br label %91

91:                                               ; preds = %106, %90
  %92 = load i64, ptr %22, align 8, !tbaa !43
  %93 = load i64, ptr %12, align 8, !tbaa !43
  %94 = icmp slt i64 %92, %93
  br i1 %94, label %95, label %109

95:                                               ; preds = %91
  %96 = load ptr, ptr %21, align 8, !tbaa !76
  %97 = load ptr, ptr %15, align 8, !tbaa !76
  %98 = load i64, ptr %22, align 8, !tbaa !43
  %99 = getelementptr inbounds i64, ptr %97, i64 %98
  %100 = load i64, ptr %99, align 8, !tbaa !43
  %101 = getelementptr inbounds i64, ptr %96, i64 %100
  %102 = load i64, ptr %101, align 8, !tbaa !43
  %103 = load ptr, ptr %15, align 8, !tbaa !76
  %104 = load i64, ptr %22, align 8, !tbaa !43
  %105 = getelementptr inbounds i64, ptr %103, i64 %104
  store i64 %102, ptr %105, align 8, !tbaa !43
  br label %106

106:                                              ; preds = %95
  %107 = load i64, ptr %22, align 8, !tbaa !43
  %108 = add nsw i64 %107, 1
  store i64 %108, ptr %22, align 8, !tbaa !43
  br label %91, !llvm.loop !84

109:                                              ; preds = %91
  br label %110

110:                                              ; preds = %109, %70
  %111 = load ptr, ptr %16, align 8, !tbaa !76
  %112 = icmp ne ptr %111, null
  br i1 %112, label %113, label %133

113:                                              ; preds = %110
  store i64 0, ptr %22, align 8, !tbaa !43
  br label %114

114:                                              ; preds = %129, %113
  %115 = load i64, ptr %22, align 8, !tbaa !43
  %116 = load i64, ptr %13, align 8, !tbaa !43
  %117 = icmp slt i64 %115, %116
  br i1 %117, label %118, label %132

118:                                              ; preds = %114
  %119 = load ptr, ptr %21, align 8, !tbaa !76
  %120 = load ptr, ptr %16, align 8, !tbaa !76
  %121 = load i64, ptr %22, align 8, !tbaa !43
  %122 = getelementptr inbounds i64, ptr %120, i64 %121
  %123 = load i64, ptr %122, align 8, !tbaa !43
  %124 = getelementptr inbounds i64, ptr %119, i64 %123
  %125 = load i64, ptr %124, align 8, !tbaa !43
  %126 = load ptr, ptr %16, align 8, !tbaa !76
  %127 = load i64, ptr %22, align 8, !tbaa !43
  %128 = getelementptr inbounds i64, ptr %126, i64 %127
  store i64 %125, ptr %128, align 8, !tbaa !43
  br label %129

129:                                              ; preds = %118
  %130 = load i64, ptr %22, align 8, !tbaa !43
  %131 = add nsw i64 %130, 1
  store i64 %131, ptr %22, align 8, !tbaa !43
  br label %114, !llvm.loop !85

132:                                              ; preds = %114
  br label %133

133:                                              ; preds = %132, %110
  %134 = load ptr, ptr %17, align 8, !tbaa !76
  %135 = icmp ne ptr %134, null
  br i1 %135, label %136, label %156

136:                                              ; preds = %133
  store i64 0, ptr %22, align 8, !tbaa !43
  br label %137

137:                                              ; preds = %152, %136
  %138 = load i64, ptr %22, align 8, !tbaa !43
  %139 = load i64, ptr %14, align 8, !tbaa !43
  %140 = icmp slt i64 %138, %139
  br i1 %140, label %141, label %155

141:                                              ; preds = %137
  %142 = load ptr, ptr %21, align 8, !tbaa !76
  %143 = load ptr, ptr %17, align 8, !tbaa !76
  %144 = load i64, ptr %22, align 8, !tbaa !43
  %145 = getelementptr inbounds i64, ptr %143, i64 %144
  %146 = load i64, ptr %145, align 8, !tbaa !43
  %147 = getelementptr inbounds i64, ptr %142, i64 %146
  %148 = load i64, ptr %147, align 8, !tbaa !43
  %149 = load ptr, ptr %17, align 8, !tbaa !76
  %150 = load i64, ptr %22, align 8, !tbaa !43
  %151 = getelementptr inbounds i64, ptr %149, i64 %150
  store i64 %148, ptr %151, align 8, !tbaa !43
  br label %152

152:                                              ; preds = %141
  %153 = load i64, ptr %22, align 8, !tbaa !43
  %154 = add nsw i64 %153, 1
  store i64 %154, ptr %22, align 8, !tbaa !43
  br label %137, !llvm.loop !86

155:                                              ; preds = %137
  br label %156

156:                                              ; preds = %155, %133
  %157 = load ptr, ptr %21, align 8, !tbaa !76
  call void @free(ptr noundef %157) #7
  br label %158

158:                                              ; preds = %156, %65
  %159 = load ptr, ptr %10, align 8, !tbaa !8
  %160 = load ptr, ptr %159, align 8, !tbaa !8
  call void @csc_spfree(ptr noundef %160)
  %161 = load ptr, ptr %23, align 8, !tbaa !8
  %162 = load ptr, ptr %10, align 8, !tbaa !8
  store ptr %161, ptr %162, align 8, !tbaa !8
  %163 = load ptr, ptr %20, align 8, !tbaa !76
  call void @free(ptr noundef %163) #7
  %164 = load ptr, ptr %18, align 8, !tbaa !70
  call void @free(ptr noundef %164) #7
  store i64 0, ptr %9, align 8
  store i32 1, ptr %24, align 4
  br label %165

165:                                              ; preds = %158, %45
  call void @llvm.lifetime.end.p0(i64 8, ptr %23) #7
  call void @llvm.lifetime.end.p0(i64 8, ptr %22) #7
  call void @llvm.lifetime.end.p0(i64 8, ptr %21) #7
  call void @llvm.lifetime.end.p0(i64 8, ptr %20) #7
  call void @llvm.lifetime.end.p0(i64 8, ptr %19) #7
  call void @llvm.lifetime.end.p0(i64 8, ptr %18) #7
  %166 = load i64, ptr %9, align 8
  ret i64 %166
}