; Function Attrs: nounwind uwtable
define internal fastcc void @permute_KKT(ptr noundef nonnull captures(none) %0, ptr noundef readonly captures(none) %1, i64 noundef %2, i64 noundef %3, i64 noundef %4, ptr noundef captures(address_is_null) %5, ptr noundef captures(address_is_null) %6, ptr noundef captures(address_is_null) %7) unnamed_addr #1 {
  %9 = tail call noalias dereferenceable_or_null(160) ptr @malloc(i64 noundef 160) #14
  %10 = load ptr, ptr %0, align 8, !tbaa !59
  %11 = getelementptr inbounds nuw i8, ptr %10, i64 8
  %12 = load i64, ptr %11, align 8, !tbaa !40
  %13 = getelementptr inbounds nuw i8, ptr %10, i64 16
  %14 = load ptr, ptr %13, align 8, !tbaa !14
  %15 = getelementptr inbounds nuw i8, ptr %10, i64 24
  %16 = load ptr, ptr %15, align 8, !tbaa !16
  %17 = getelementptr inbounds nuw i8, ptr %1, i64 96
  %18 = load ptr, ptr %17, align 8, !tbaa !18
  %19 = tail call i64 @amd_l_order(i64 noundef %12, ptr noundef %14, ptr noundef %16, ptr noundef %18, ptr noundef null, ptr noundef %9) #12
  %20 = icmp slt i64 %19, 0
  br i1 %20, label %63, label %21

21:                                               ; preds = %8
  %22 = load ptr, ptr %17, align 8, !tbaa !18
  %23 = load ptr, ptr %0, align 8, !tbaa !59
  %24 = getelementptr inbounds nuw i8, ptr %23, i64 8
  %25 = load i64, ptr %24, align 8, !tbaa !40
  %26 = tail call ptr @csc_pinv(ptr noundef %22, i64 noundef %25) #12
  %27 = icmp ne ptr %5, null
  %28 = icmp ne ptr %6, null
  %or.cond = or i1 %27, %28
  %29 = icmp ne ptr %7, null
  %or.cond3 = or i1 %or.cond, %29
  %30 = load ptr, ptr %0, align 8, !tbaa !59
  br i1 %or.cond3, label %33, label %31

31:                                               ; preds = %21
  %32 = tail call ptr @csc_symperm(ptr noundef %30, ptr noundef %26, ptr noundef null, i64 noundef 1) #12
  br label %61

33:                                               ; preds = %21
  %34 = getelementptr inbounds nuw i8, ptr %30, i64 16
  %35 = load ptr, ptr %34, align 8, !tbaa !14
  %36 = getelementptr inbounds nuw i8, ptr %30, i64 8
  %37 = load i64, ptr %36, align 8, !tbaa !40
  %38 = getelementptr inbounds i64, ptr %35, i64 %37
  %39 = load i64, ptr %38, align 8, !tbaa !60
  %40 = shl i64 %39, 3
  %41 = tail call noalias ptr @malloc(i64 noundef %40) #14
  %42 = tail call ptr @csc_symperm(ptr noundef %30, ptr noundef %26, ptr noundef %41, i64 noundef 1) #12
  %43 = icmp sgt i64 %2, 0
  %or.cond71 = and i1 %27, %43
  br i1 %or.cond71, label %.lr.ph, label %.loopexit65

.lr.ph:                                           ; preds = %33, %.lr.ph
  %.05666 = phi i64 [ %48, %.lr.ph ], [ 0, %33 ]
  %44 = getelementptr inbounds nuw i64, ptr %5, i64 %.05666
  %45 = load i64, ptr %44, align 8, !tbaa !60
  %46 = getelementptr inbounds i64, ptr %41, i64 %45
  %47 = load i64, ptr %46, align 8, !tbaa !60
  store i64 %47, ptr %44, align 8, !tbaa !60
  %48 = add nuw nsw i64 %.05666, 1
  %exitcond.not = icmp eq i64 %48, %2
  br i1 %exitcond.not, label %.loopexit65, label %.lr.ph, !llvm.loop !88

.loopexit65:                                      ; preds = %.lr.ph, %33
  %49 = icmp sgt i64 %3, 0
  %or.cond72 = and i1 %28, %49
  br i1 %or.cond72, label %.lr.ph68, label %.loopexit63

.lr.ph68:                                         ; preds = %.loopexit65, %.lr.ph68
  %.167 = phi i64 [ %54, %.lr.ph68 ], [ 0, %.loopexit65 ]
  %50 = getelementptr inbounds nuw i64, ptr %6, i64 %.167
  %51 = load i64, ptr %50, align 8, !tbaa !60
  %52 = getelementptr inbounds i64, ptr %41, i64 %51
  %53 = load i64, ptr %52, align 8, !tbaa !60
  store i64 %53, ptr %50, align 8, !tbaa !60
  %54 = add nuw nsw i64 %.167, 1
  %exitcond74.not = icmp eq i64 %54, %3
  br i1 %exitcond74.not, label %.loopexit63, label %.lr.ph68, !llvm.loop !89

.loopexit63:                                      ; preds = %.lr.ph68, %.loopexit65
  %55 = icmp sgt i64 %4, 0
  %or.cond73 = and i1 %29, %55
  br i1 %or.cond73, label %.lr.ph70, label %.loopexit

.lr.ph70:                                         ; preds = %.loopexit63, %.lr.ph70
  %.269 = phi i64 [ %60, %.lr.ph70 ], [ 0, %.loopexit63 ]
  %56 = getelementptr inbounds nuw i64, ptr %7, i64 %.269
  %57 = load i64, ptr %56, align 8, !tbaa !60
  %58 = getelementptr inbounds i64, ptr %41, i64 %57
  %59 = load i64, ptr %58, align 8, !tbaa !60
  store i64 %59, ptr %56, align 8, !tbaa !60
  %60 = add nuw nsw i64 %.269, 1
  %exitcond75.not = icmp eq i64 %60, %4
  br i1 %exitcond75.not, label %.loopexit, label %.lr.ph70, !llvm.loop !90

.loopexit:                                        ; preds = %.lr.ph70, %.loopexit63
  tail call void @free(ptr noundef %41) #12
  br label %61

61:                                               ; preds = %.loopexit, %31
  %.0 = phi ptr [ %42, %.loopexit ], [ %32, %31 ]
  %62 = load ptr, ptr %0, align 8, !tbaa !59
  tail call void @csc_spfree(ptr noundef %62) #12
  store ptr %.0, ptr %0, align 8, !tbaa !59
  tail call void @free(ptr noundef %26) #12
  br label %63

63:                                               ; preds = %8, %61
  tail call void @free(ptr noundef %9) #12
  ret void
}